target datalayout = "e-m:e-p270:32:32-p271:32:32-p272:64:64-i64:64-i128:128-f80:128-n8:16:32:64-S128"
target triple = "x86_64-pc-linux-gnu"

%class.StackOverflow = type { i32, ptr, ptr, ptr, ptr, ptr, ptr }

@_ZN13StackOverflow20_stack_red_zone_sizeE = hidden global i64 0, align 8
@_ZN13StackOverflow23_stack_yellow_zone_sizeE = hidden global i64 0, align 8
@_ZN13StackOverflow25_stack_reserved_zone_sizeE = hidden global i64 0, align 8
@.str.16 = private unnamed_addr constant [47 x i8] c"Attempt to unguard stack reserved zone failed.\00", align 1

; Function Attrs: mustprogress nounwind uwtable
define linkonce_odr hidden noundef i64 @_ZN13StackOverflow22stack_yellow_zone_sizeEv() #1 comdat align 2 {
  %1 = load i64, ptr @_ZN13StackOverflow23_stack_yellow_zone_sizeE, align 8
  ret i64 %1
}

; Function Attrs: mustprogress nounwind uwtable
define linkonce_odr hidden noundef i64 @_ZN13StackOverflow19stack_red_zone_sizeEv() #1 comdat align 2 {
  %1 = load i64, ptr @_ZN13StackOverflow20_stack_red_zone_sizeE, align 8
  ret i64 %1
}

; Function Attrs: mustprogress nounwind uwtable
define linkonce_odr hidden noundef ptr @_ZNK13StackOverflow9stack_endEv(ptr noundef nonnull align 8 dereferenceable(56) %0) #1 comdat align 2 {
  %2 = alloca ptr, align 8
  store ptr %0, ptr %2, align 8
  %3 = load ptr, ptr %2, align 8
  %4 = getelementptr inbounds %class.StackOverflow, ptr %3, i32 0, i32 6
  %5 = load ptr, ptr %4, align 8
  ret ptr %5
}

; Function Attrs: mustprogress nounwind uwtable
define linkonce_odr hidden noundef i64 @_ZN13StackOverflow24stack_reserved_zone_sizeEv() #1 comdat align 2 {
  %1 = load i64, ptr @_ZN13StackOverflow25_stack_reserved_zone_sizeE, align 8
  ret i64 %1
}

; Function Attrs: mustprogress nounwind uwtable
define linkonce_odr hidden noundef ptr @_ZNK13StackOverflow24stack_reserved_zone_baseEv(ptr noundef nonnull align 8 dereferenceable(56) %0) #1 comdat align 2 {
  %2 = alloca ptr, align 8
  store ptr %0, ptr %2, align 8
  %3 = load ptr, ptr %2, align 8
  %4 = call noundef ptr @_ZNK13StackOverflow9stack_endEv(ptr noundef nonnull align 8 dereferenceable(56) %3)
  %5 = call noundef i64 @_ZN13StackOverflow19stack_red_zone_sizeEv()
  %6 = call noundef i64 @_ZN13StackOverflow22stack_yellow_zone_sizeEv()
  %7 = add i64 %5, %6
  %8 = call noundef i64 @_ZN13StackOverflow24stack_reserved_zone_sizeEv()
  %9 = add i64 %7, %8
  %10 = getelementptr inbounds i8, ptr %4, i64 %9
  ret ptr %10
}

; Function Attrs: mustprogress nounwind uwtable
define hidden void @_ZN13StackOverflow27disable_stack_reserved_zoneEv(ptr noundef nonnull align 8 dereferenceable(56) %0) #1 align 2 {
  %2 = alloca ptr, align 8
  %3 = alloca ptr, align 8
  store ptr %0, ptr %2, align 8
  %4 = load ptr, ptr %2, align 8
  %5 = getelementptr inbounds %class.StackOverflow, ptr %4, i32 0, i32 0
  %6 = load i32, ptr %5, align 8
  %7 = icmp ne i32 %6, 3
  br i1 %7, label %8, label %9

8:                                                ; preds = %1
  br label %20

9:                                                ; preds = %1
  %10 = call noundef ptr @_ZNK13StackOverflow24stack_reserved_zone_baseEv(ptr noundef nonnull align 8 dereferenceable(56) %4)
  %11 = call noundef i64 @_ZN13StackOverflow24stack_reserved_zone_sizeEv()
  %12 = sub i64 0, %11
  %13 = getelementptr inbounds i8, ptr %10, i64 %12
  store ptr %13, ptr %3, align 8
  %14 = load ptr, ptr %3, align 8
  %15 = call noundef i64 @_ZN13StackOverflow24stack_reserved_zone_sizeEv()
  %16 = call noundef zeroext i1 @_ZN2os14unguard_memoryEPcm(ptr noundef %14, i64 noundef %15)
  br i1 %16, label %17, label %19

17:                                               ; preds = %9
  %18 = getelementptr inbounds %class.StackOverflow, ptr %4, i32 0, i32 0
  store i32 1, ptr %18, align 8
  br label %20

19:                                               ; preds = %9
  call void (ptr, ...) @_Z7warningPKcz(ptr noundef @.str.16)
  br label %20

20:                                               ; preds = %19, %17, %8
  ret void
}