; Function Attrs: mustprogress nounwind uwtable
define hidden void @_ZN13StackOverflow27disable_stack_reserved_zoneEv(ptr nocapture noundef nonnull align 8 dereferenceable(56) %0) local_unnamed_addr #2 align 2 {
  %2 = load i32, ptr %0, align 8
  %.not = icmp eq i32 %2, 3
  br i1 %.not, label %3, label %14

3:                                                ; preds = %1
  %4 = getelementptr inbounds i8, ptr %0, i64 48
  %5 = load ptr, ptr %4, align 8
  %6 = load i64, ptr @_ZN13StackOverflow20_stack_red_zone_sizeE, align 8
  %7 = load i64, ptr @_ZN13StackOverflow23_stack_yellow_zone_sizeE, align 8
  %8 = load i64, ptr @_ZN13StackOverflow25_stack_reserved_zone_sizeE, align 8
  %9 = getelementptr i8, ptr %5, i64 %6
  %10 = getelementptr i8, ptr %9, i64 %7
  %11 = tail call noundef zeroext i1 @_ZN2os14unguard_memoryEPcm(ptr noundef %10, i64 noundef %8) #7
  br i1 %11, label %12, label %13

12:                                               ; preds = %3
  store i32 1, ptr %0, align 8
  br label %14

13:                                               ; preds = %3
  tail call void (ptr, ...) @_Z7warningPKcz(ptr noundef nonnull @.str.16) #7
  br label %14

14:                                               ; preds = %1, %13, %12
  ret void
}